; Function Attrs: mustprogress nofree norecurse nosync nounwind memory(read, argmem: readwrite, inaccessiblemem: none) uwtable
define hidden void @_ZN6Assimp3IFC21ConvertCartesianPointER10aiVector3tIdERKNS0_10Schema_2x317IfcCartesianPointE(ptr noundef nonnull writeonly align 8 captures(none) dereferenceable(24) initializes((0, 24)) %0, ptr noundef nonnull readonly align 8 captures(none) dereferenceable(88) %1) local_unnamed_addr #6 {
  tail call void @llvm.memset.p0.i64(ptr noundef nonnull align 8 dereferenceable(24) %0, i8 0, i64 24, i1 false)
  %3 = getelementptr inbounds nuw i8, ptr %1, i64 64
  %4 = getelementptr inbounds nuw i8, ptr %1, i64 72
  %5 = load ptr, ptr %4, align 8
  %6 = load ptr, ptr %3, align 8
  %.not = icmp eq ptr %5, %6
  br i1 %.not, label %._crit_edge, label %.lr.ph

.lr.ph:                                           ; preds = %2
  %7 = getelementptr inbounds nuw i8, ptr %0, i64 8
  %8 = getelementptr inbounds nuw i8, ptr %0, i64 16
  br label %9

._crit_edge:                                      ; preds = %_ZN10aiVector3tIdEixEj.exit, %2
  ret void

9:                                                ; preds = %.lr.ph, %_ZN10aiVector3tIdEixEj.exit
  %10 = phi ptr [ %6, %.lr.ph ], [ %18, %_ZN10aiVector3tIdEixEj.exit ]
  %.07 = phi i64 [ 0, %.lr.ph ], [ %16, %_ZN10aiVector3tIdEixEj.exit ]
  %11 = getelementptr inbounds nuw double, ptr %10, i64 %.07
  %12 = load double, ptr %11, align 8
  %13 = trunc i64 %.07 to i32
  switch i32 %13, label %_ZN10aiVector3tIdEixEj.exit [
    i32 2, label %15
    i32 1, label %14
  ]

14:                                               ; preds = %9
  br label %_ZN10aiVector3tIdEixEj.exit

15:                                               ; preds = %9
  br label %_ZN10aiVector3tIdEixEj.exit

_ZN10aiVector3tIdEixEj.exit:                      ; preds = %9, %14, %15
  %.0.i = phi ptr [ %8, %15 ], [ %7, %14 ], [ %0, %9 ]
  store double %12, ptr %.0.i, align 8
  %16 = add nuw i64 %.07, 1
  %17 = load ptr, ptr %4, align 8
  %18 = load ptr, ptr %3, align 8
  %19 = ptrtoint ptr %17 to i64
  %20 = ptrtoint ptr %18 to i64
  %21 = sub i64 %19, %20
  %22 = ashr exact i64 %21, 3
  %23 = icmp ult i64 %16, %22
  br i1 %23, label %9, label %._crit_edge, !llvm.loop !152
}